; Function Attrs: mustprogress uwtable
define void @_ZN18OpenImageIO_v2_6_012ImageBufAlgo5noiseENS_17basic_string_viewIcSt11char_traitsIcEEEffbiNS_3ROIEi(ptr noalias nonnull sret(%"class.OpenImageIO_v2_6_0::ImageBuf") align 8 %agg.result, ptr nocapture noundef readonly %noisetype, float noundef %A, float noundef %B, i1 noundef zeroext %mono, i32 noundef %seed, ptr nocapture noundef readonly byval(%"struct.OpenImageIO_v2_6_0::ROI") align 8 %roi, i32 noundef %nthreads) local_unnamed_addr #5 personality ptr @__gxx_personality_v0 {
entry:
  %agg.tmp1 = alloca %"class.OpenImageIO_v2_6_0::basic_string_view", align 8
  tail call void @_ZN18OpenImageIO_v2_6_08ImageBufC1Ev(ptr noundef nonnull align 8 dereferenceable(16) %agg.result)
  %call.i = invoke noundef zeroext i1 @_ZN18OpenImageIO_v2_6_012ImageBufAlgo4zeroERNS_8ImageBufENS_3ROIEi(ptr noundef nonnull align 8 dereferenceable(16) %agg.result, ptr noundef nonnull byval(%"struct.OpenImageIO_v2_6_0::ROI") align 8 %roi, i32 noundef %nthreads)
          to label %invoke.cont.i unwind label %lpad.i

invoke.cont.i:                                    ; preds = %entry
  br i1 %call.i, label %_ZN18OpenImageIO_v2_6_012ImageBufAlgo4zeroENS_3ROIEi.exit, label %land.lhs.true.i

land.lhs.true.i:                                  ; preds = %invoke.cont.i
  %call2.i = invoke noundef zeroext i1 @_ZNK18OpenImageIO_v2_6_08ImageBuf9has_errorEv(ptr noundef nonnull align 8 dereferenceable(16) %agg.result)
          to label %invoke.cont1.i unwind label %lpad.i

invoke.cont1.i:                                   ; preds = %land.lhs.true.i
  br i1 %call2.i, label %_ZN18OpenImageIO_v2_6_012ImageBufAlgo4zeroENS_3ROIEi.exit, label %if.then.i

if.then.i:                                        ; preds = %invoke.cont1.i
  invoke void @_ZNK18OpenImageIO_v2_6_08ImageBuf8errorfmtIJEEEvPKcDpRKT_(ptr noundef nonnull align 8 dereferenceable(16) %agg.result, ptr noundef nonnull @.str.8)
          to label %_ZN18OpenImageIO_v2_6_012ImageBufAlgo4zeroENS_3ROIEi.exit unwind label %lpad.i

common.resume:                                    ; preds = %lpad, %lpad.i
  %common.resume.op = phi { ptr, i32 } [ %0, %lpad.i ], [ %3, %lpad ]
  resume { ptr, i32 } %common.resume.op

lpad.i:                                           ; preds = %if.then.i, %land.lhs.true.i, %entry
  %0 = landingpad { ptr, i32 }
          cleanup
  tail call void @_ZN18OpenImageIO_v2_6_08ImageBufD1Ev(ptr noundef nonnull align 8 dereferenceable(16) %agg.result) #23
  br label %common.resume

_ZN18OpenImageIO_v2_6_012ImageBufAlgo4zeroENS_3ROIEi.exit: ; preds = %invoke.cont.i, %invoke.cont1.i, %if.then.i
  %1 = load ptr, ptr %noisetype, align 8
  store ptr %1, ptr %agg.tmp1, align 8
  %m_len.i = getelementptr inbounds i8, ptr %agg.tmp1, i64 8
  %m_len.i.i = getelementptr inbounds i8, ptr %noisetype, i64 8
  %2 = load i64, ptr %m_len.i.i, align 8
  store i64 %2, ptr %m_len.i, align 8
  %call = invoke noundef zeroext i1 @_ZN18OpenImageIO_v2_6_012ImageBufAlgo5noiseERNS_8ImageBufENS_17basic_string_viewIcSt11char_traitsIcEEEffbiNS_3ROIEi(ptr noundef nonnull align 8 dereferenceable(16) %agg.result, ptr noundef nonnull %agg.tmp1, float noundef %A, float noundef %B, i1 noundef zeroext %mono, i32 noundef %seed, ptr noundef nonnull byval(%"struct.OpenImageIO_v2_6_0::ROI") align 8 %roi, i32 noundef %nthreads)
          to label %invoke.cont3 unwind label %lpad

invoke.cont3:                                     ; preds = %_ZN18OpenImageIO_v2_6_012ImageBufAlgo4zeroENS_3ROIEi.exit
  br i1 %call, label %nrvo.skipdtor, label %land.lhs.true

land.lhs.true:                                    ; preds = %invoke.cont3
  %call7 = invoke noundef zeroext i1 @_ZNK18OpenImageIO_v2_6_08ImageBuf9has_errorEv(ptr noundef nonnull align 8 dereferenceable(16) %agg.result)
          to label %invoke.cont6 unwind label %lpad

invoke.cont6:                                     ; preds = %land.lhs.true
  br i1 %call7, label %nrvo.skipdtor, label %if.then

if.then:                                          ; preds = %invoke.cont6
  invoke void @_ZNK18OpenImageIO_v2_6_08ImageBuf8errorfmtIJEEEvPKcDpRKT_(ptr noundef nonnull align 8 dereferenceable(16) %agg.result, ptr noundef nonnull @.str.24)
          to label %nrvo.skipdtor unwind label %lpad

lpad:                                             ; preds = %if.then, %land.lhs.true, %_ZN18OpenImageIO_v2_6_012ImageBufAlgo4zeroENS_3ROIEi.exit
  %3 = landingpad { ptr, i32 }
          cleanup
  call void @_ZN18OpenImageIO_v2_6_08ImageBufD1Ev(ptr noundef nonnull align 8 dereferenceable(16) %agg.result) #23
  br label %common.resume

nrvo.skipdtor:                                    ; preds = %invoke.cont3, %invoke.cont6, %if.then
  ret void
}